target datalayout = "e-m:e-p270:32:32-p271:32:32-p272:64:64-i64:64-i128:128-f80:128-n8:16:32:64-S128"
target triple = "x86_64-pc-linux-gnu"

%"class.arrow_vendored::date::tzdb_list" = type { %"struct.std::atomic" }
%"struct.std::atomic" = type { %"struct.std::__atomic_base" }
%"struct.std::__atomic_base" = type { ptr }

@__dso_handle = external hidden global i8
@_ZZN14arrow_vendored4date13get_tzdb_listEvE5tz_db = internal global %"class.arrow_vendored::date::tzdb_list" zeroinitializer, align 8
@_ZGVZN14arrow_vendored4date13get_tzdb_listEvE5tz_db = internal global i64 0, align 8
@_ZN14arrow_vendored4date9tzdb_listD1Ev = unnamed_addr alias void (ptr), ptr @_ZN14arrow_vendored4date9tzdb_listD2Ev

; Function Attrs: mustprogress uwtable
define noundef nonnull align 8 dereferenceable(8) ptr @_ZN14arrow_vendored4date13get_tzdb_listEv() #9 personality ptr @__gxx_personality_v0 {
  %1 = alloca ptr, align 8
  %2 = alloca i32, align 4
  %3 = load atomic i8, ptr @_ZGVZN14arrow_vendored4date13get_tzdb_listEvE5tz_db acquire, align 8
  %4 = icmp eq i8 %3, 0
  br i1 %4, label %5, label %11, !prof !37

5:                                                ; preds = %0
  %6 = call i32 @__cxa_guard_acquire(ptr @_ZGVZN14arrow_vendored4date13get_tzdb_listEvE5tz_db) #3
  %7 = icmp ne i32 %6, 0
  br i1 %7, label %8, label %11

8:                                                ; preds = %5
  invoke void @_ZN14arrow_vendored4dateL11create_tzdbEv(ptr dead_on_unwind writable sret(%"class.arrow_vendored::date::tzdb_list") align 8 @_ZZN14arrow_vendored4date13get_tzdb_listEvE5tz_db)
          to label %9 unwind label %12

9:                                                ; preds = %8
  %10 = call i32 @__cxa_atexit(ptr @_ZN14arrow_vendored4date9tzdb_listD1Ev, ptr @_ZZN14arrow_vendored4date13get_tzdb_listEvE5tz_db, ptr @__dso_handle) #3
  call void @__cxa_guard_release(ptr @_ZGVZN14arrow_vendored4date13get_tzdb_listEvE5tz_db) #3
  br label %11

11:                                               ; preds = %9, %5, %0
  ret ptr @_ZZN14arrow_vendored4date13get_tzdb_listEvE5tz_db

12:                                               ; preds = %8
  %13 = landingpad { ptr, i32 }
          cleanup
  %14 = extractvalue { ptr, i32 } %13, 0
  store ptr %14, ptr %1, align 8
  %15 = extractvalue { ptr, i32 } %13, 1
  store i32 %15, ptr %2, align 4
  call void @__cxa_guard_abort(ptr @_ZGVZN14arrow_vendored4date13get_tzdb_listEvE5tz_db) #3
  br label %16

16:                                               ; preds = %12
  %17 = load ptr, ptr %1, align 8
  %18 = load i32, ptr %2, align 4
  %19 = insertvalue { ptr, i32 } poison, ptr %17, 0
  %20 = insertvalue { ptr, i32 } %19, i32 %18, 1
  resume { ptr, i32 } %20
}