; Function Attrs: mustprogress uwtable
define noundef nonnull align 8 dereferenceable(8) ptr @_ZN14arrow_vendored4date13get_tzdb_listEv() local_unnamed_addr #8 personality ptr @__gxx_personality_v0 {
  %1 = load atomic i8, ptr @_ZGVZN14arrow_vendored4date13get_tzdb_listEvE5tz_db acquire, align 8
  %2 = icmp eq i8 %1, 0
  br i1 %2, label %3, label %8, !prof !35

3:                                                ; preds = %0
  %4 = tail call i32 @__cxa_guard_acquire(ptr nonnull @_ZGVZN14arrow_vendored4date13get_tzdb_listEvE5tz_db) #32
  %.not = icmp eq i32 %4, 0
  br i1 %.not, label %8, label %5

5:                                                ; preds = %3
  invoke fastcc void @_ZN14arrow_vendored4dateL11create_tzdbEv()
          to label %6 unwind label %9

6:                                                ; preds = %5
  %7 = tail call i32 @__cxa_atexit(ptr nonnull @_ZN14arrow_vendored4date9tzdb_listD1Ev, ptr nonnull @_ZZN14arrow_vendored4date13get_tzdb_listEvE5tz_db, ptr nonnull @__dso_handle) #32
  tail call void @__cxa_guard_release(ptr nonnull @_ZGVZN14arrow_vendored4date13get_tzdb_listEvE5tz_db) #32
  br label %8

8:                                                ; preds = %6, %3, %0
  ret ptr @_ZZN14arrow_vendored4date13get_tzdb_listEvE5tz_db

9:                                                ; preds = %5
  %10 = landingpad { ptr, i32 }
          cleanup
  tail call void @__cxa_guard_abort(ptr nonnull @_ZGVZN14arrow_vendored4date13get_tzdb_listEvE5tz_db) #32
  resume { ptr, i32 } %10
}